target datalayout = "e-m:e-p270:32:32-p271:32:32-p272:64:64-i64:64-i128:128-f80:128-n8:16:32:64-S128"
target triple = "x86_64-pc-linux-gnu"

%struct.redisObject = type { i32, i32, ptr }

@.str.1 = private unnamed_addr constant [8 x i8] c"t_set.c\00", align 1
@.str.3 = private unnamed_addr constant [21 x i8] c"Unknown set encoding\00", align 1

; Function Attrs: nounwind uwtable
define dso_local i32 @setTypeIsMemberAux(ptr noundef %0, ptr noundef %1, i64 noundef %2, i64 noundef %3, i32 noundef %4) #0 {
  %6 = alloca i32, align 4
  %7 = alloca ptr, align 8
  %8 = alloca ptr, align 8
  %9 = alloca i64, align 8
  %10 = alloca i64, align 8
  %11 = alloca i32, align 4
  %12 = alloca [21 x i8], align 16
  %13 = alloca i32, align 4
  %14 = alloca ptr, align 8
  %15 = alloca ptr, align 8
  %16 = alloca i64, align 8
  %17 = alloca ptr, align 8
  %18 = alloca i32, align 4
  store ptr %0, ptr %7, align 8, !tbaa !41
  store ptr %1, ptr %8, align 8, !tbaa !5
  store i64 %2, ptr %9, align 8, !tbaa !10
  store i64 %3, ptr %10, align 8, !tbaa !10
  store i32 %4, ptr %11, align 4, !tbaa !45
  call void @llvm.lifetime.start.p0(i64 21, ptr %12) #10
  %19 = load ptr, ptr %8, align 8, !tbaa !5
  %20 = icmp ne ptr %19, null
  br i1 %20, label %40, label %21

21:                                               ; preds = %5
  %22 = load ptr, ptr %7, align 8, !tbaa !41
  %23 = load i32, ptr %22, align 8
  %24 = lshr i32 %23, 4
  %25 = and i32 %24, 15
  %26 = icmp eq i32 %25, 6
  br i1 %26, label %27, label %34

27:                                               ; preds = %21
  %28 = load ptr, ptr %7, align 8, !tbaa !41
  %29 = getelementptr inbounds nuw %struct.redisObject, ptr %28, i32 0, i32 2
  %30 = load ptr, ptr %29, align 8, !tbaa !43
  %31 = load i64, ptr %10, align 8, !tbaa !10
  %32 = call zeroext i8 @intsetFind(ptr noundef %30, i64 noundef %31)
  %33 = zext i8 %32 to i32
  store i32 %33, ptr %6, align 4
  store i32 1, ptr %13, align 4
  br label %124

34:                                               ; preds = %21
  %35 = getelementptr inbounds [21 x i8], ptr %12, i64 0, i64 0
  %36 = load i64, ptr %10, align 8, !tbaa !10
  %37 = call i32 @ll2string(ptr noundef %35, i64 noundef 21, i64 noundef %36)
  %38 = sext i32 %37 to i64
  store i64 %38, ptr %9, align 8, !tbaa !10
  %39 = getelementptr inbounds [21 x i8], ptr %12, i64 0, i64 0
  store ptr %39, ptr %8, align 8, !tbaa !5
  store i32 0, ptr %11, align 4, !tbaa !45
  br label %40

40:                                               ; preds = %34, %5
  %41 = load ptr, ptr %7, align 8, !tbaa !41
  %42 = load i32, ptr %41, align 8
  %43 = lshr i32 %42, 4
  %44 = and i32 %43, 15
  %45 = icmp eq i32 %44, 11
  br i1 %45, label %46, label %65

46:                                               ; preds = %40
  call void @llvm.lifetime.start.p0(i64 8, ptr %14) #10
  %47 = load ptr, ptr %7, align 8, !tbaa !41
  %48 = getelementptr inbounds nuw %struct.redisObject, ptr %47, i32 0, i32 2
  %49 = load ptr, ptr %48, align 8, !tbaa !43
  store ptr %49, ptr %14, align 8, !tbaa !5
  call void @llvm.lifetime.start.p0(i64 8, ptr %15) #10
  %50 = load ptr, ptr %14, align 8, !tbaa !5
  %51 = call ptr @lpFirst(ptr noundef %50)
  store ptr %51, ptr %15, align 8, !tbaa !5
  %52 = load ptr, ptr %15, align 8, !tbaa !5
  %53 = icmp ne ptr %52, null
  br i1 %53, label %54, label %62

54:                                               ; preds = %46
  %55 = load ptr, ptr %14, align 8, !tbaa !5
  %56 = load ptr, ptr %15, align 8, !tbaa !5
  %57 = load ptr, ptr %8, align 8, !tbaa !5
  %58 = load i64, ptr %9, align 8, !tbaa !10
  %59 = trunc i64 %58 to i32
  %60 = call ptr @lpFind(ptr noundef %55, ptr noundef %56, ptr noundef %57, i32 noundef %59, i32 noundef 0)
  %61 = icmp ne ptr %60, null
  br label %62

62:                                               ; preds = %54, %46
  %63 = phi i1 [ false, %46 ], [ %61, %54 ]
  %64 = zext i1 %63 to i32
  store i32 %64, ptr %6, align 4
  store i32 1, ptr %13, align 4
  call void @llvm.lifetime.end.p0(i64 8, ptr %15) #10
  call void @llvm.lifetime.end.p0(i64 8, ptr %14) #10
  br label %124

65:                                               ; preds = %40
  %66 = load ptr, ptr %7, align 8, !tbaa !41
  %67 = load i32, ptr %66, align 8
  %68 = lshr i32 %67, 4
  %69 = and i32 %68, 15
  %70 = icmp eq i32 %69, 6
  br i1 %70, label %71, label %87

71:                                               ; preds = %65
  call void @llvm.lifetime.start.p0(i64 8, ptr %16) #10
  %72 = load ptr, ptr %8, align 8, !tbaa !5
  %73 = load i64, ptr %9, align 8, !tbaa !10
  %74 = call i32 @string2ll(ptr noundef %72, i64 noundef %73, ptr noundef %16)
  %75 = icmp ne i32 %74, 0
  br i1 %75, label %76, label %84

76:                                               ; preds = %71
  %77 = load ptr, ptr %7, align 8, !tbaa !41
  %78 = getelementptr inbounds nuw %struct.redisObject, ptr %77, i32 0, i32 2
  %79 = load ptr, ptr %78, align 8, !tbaa !43
  %80 = load i64, ptr %16, align 8, !tbaa !53
  %81 = call zeroext i8 @intsetFind(ptr noundef %79, i64 noundef %80)
  %82 = zext i8 %81 to i32
  %83 = icmp ne i32 %82, 0
  br label %84

84:                                               ; preds = %76, %71
  %85 = phi i1 [ false, %71 ], [ %83, %76 ]
  %86 = zext i1 %85 to i32
  store i32 %86, ptr %6, align 4
  store i32 1, ptr %13, align 4
  call void @llvm.lifetime.end.p0(i64 8, ptr %16) #10
  br label %124

87:                                               ; preds = %65
  %88 = load ptr, ptr %7, align 8, !tbaa !41
  %89 = load i32, ptr %88, align 8
  %90 = lshr i32 %89, 4
  %91 = and i32 %90, 15
  %92 = icmp eq i32 %91, 2
  br i1 %92, label %93, label %104

93:                                               ; preds = %87
  %94 = load i32, ptr %11, align 4, !tbaa !45
  %95 = icmp ne i32 %94, 0
  br i1 %95, label %96, label %104

96:                                               ; preds = %93
  %97 = load ptr, ptr %7, align 8, !tbaa !41
  %98 = getelementptr inbounds nuw %struct.redisObject, ptr %97, i32 0, i32 2
  %99 = load ptr, ptr %98, align 8, !tbaa !43
  %100 = load ptr, ptr %8, align 8, !tbaa !5
  %101 = call ptr @dictFind(ptr noundef %99, ptr noundef %100)
  %102 = icmp ne ptr %101, null
  %103 = zext i1 %102 to i32
  store i32 %103, ptr %6, align 4
  store i32 1, ptr %13, align 4
  br label %124

104:                                              ; preds = %93, %87
  %105 = load ptr, ptr %7, align 8, !tbaa !41
  %106 = load i32, ptr %105, align 8
  %107 = lshr i32 %106, 4
  %108 = and i32 %107, 15
  %109 = icmp eq i32 %108, 2
  br i1 %109, label %110, label %123

110:                                              ; preds = %104
  call void @llvm.lifetime.start.p0(i64 8, ptr %17) #10
  %111 = load ptr, ptr %8, align 8, !tbaa !5
  %112 = load i64, ptr %9, align 8, !tbaa !10
  %113 = call ptr @sdsnewlen(ptr noundef %111, i64 noundef %112)
  store ptr %113, ptr %17, align 8, !tbaa !5
  call void @llvm.lifetime.start.p0(i64 4, ptr %18) #10
  %114 = load ptr, ptr %7, align 8, !tbaa !41
  %115 = getelementptr inbounds nuw %struct.redisObject, ptr %114, i32 0, i32 2
  %116 = load ptr, ptr %115, align 8, !tbaa !43
  %117 = load ptr, ptr %17, align 8, !tbaa !5
  %118 = call ptr @dictFind(ptr noundef %116, ptr noundef %117)
  %119 = icmp ne ptr %118, null
  %120 = zext i1 %119 to i32
  store i32 %120, ptr %18, align 4, !tbaa !45
  %121 = load ptr, ptr %17, align 8, !tbaa !5
  call void @sdsfree(ptr noundef %121)
  %122 = load i32, ptr %18, align 4, !tbaa !45
  store i32 %122, ptr %6, align 4
  store i32 1, ptr %13, align 4
  call void @llvm.lifetime.end.p0(i64 4, ptr %18) #10
  call void @llvm.lifetime.end.p0(i64 8, ptr %17) #10
  br label %124

123:                                              ; preds = %104
  call void (ptr, i32, ptr, ...) @_serverPanic(ptr noundef @.str.1, i32 noundef 305, ptr noundef @.str.3)
  call void @abort() #11
  unreachable

124:                                              ; preds = %110, %96, %84, %62, %27
  call void @llvm.lifetime.end.p0(i64 21, ptr %12) #10
  %125 = load i32, ptr %6, align 4
  ret i32 %125
}