; Function Attrs: nounwind uwtable
define dso_local range(i32 0, 256) i32 @setTypeIsMemberAux(ptr noundef readonly captures(none) %0, ptr noundef %1, i64 noundef %2, i64 noundef %3, i32 noundef %4) local_unnamed_addr #0 {
  %6 = alloca [21 x i8], align 16
  %7 = alloca i64, align 8
  call void @llvm.lifetime.start.p0(i64 21, ptr nonnull %6) #10
  %.not = icmp eq ptr %1, null
  br i1 %.not, label %8, label %20

8:                                                ; preds = %5
  %9 = load i32, ptr %0, align 8
  %10 = and i32 %9, 240
  %11 = icmp eq i32 %10, 96
  br i1 %11, label %12, label %17

12:                                               ; preds = %8
  %13 = getelementptr inbounds nuw i8, ptr %0, i64 8
  %14 = load ptr, ptr %13, align 8, !tbaa !38
  %15 = tail call zeroext i8 @intsetFind(ptr noundef %14, i64 noundef %3) #10
  %16 = zext i8 %15 to i32
  br label %62

17:                                               ; preds = %8
  %18 = call i32 @ll2string(ptr noundef nonnull %6, i64 noundef 21, i64 noundef %3) #10
  %19 = sext i32 %18 to i64
  br label %20

20:                                               ; preds = %17, %5
  %.031 = phi i32 [ %4, %5 ], [ 0, %17 ]
  %.030 = phi i64 [ %2, %5 ], [ %19, %17 ]
  %.029 = phi ptr [ %1, %5 ], [ %6, %17 ]
  %21 = load i32, ptr %0, align 8
  %22 = lshr i32 %21, 4
  %23 = and i32 %22, 15
  switch i32 %23, label %44 [
    i32 11, label %24
    i32 6, label %33
  ]

24:                                               ; preds = %20
  %25 = getelementptr inbounds nuw i8, ptr %0, i64 8
  %26 = load ptr, ptr %25, align 8, !tbaa !38
  %27 = call ptr @lpFirst(ptr noundef %26) #10
  %.not36 = icmp eq ptr %27, null
  br i1 %.not36, label %62, label %28

28:                                               ; preds = %24
  %29 = trunc i64 %.030 to i32
  %30 = call ptr @lpFind(ptr noundef %26, ptr noundef nonnull %27, ptr noundef nonnull %.029, i32 noundef %29, i32 noundef 0) #10
  %31 = icmp ne ptr %30, null
  %32 = zext i1 %31 to i32
  br label %62

33:                                               ; preds = %20
  call void @llvm.lifetime.start.p0(i64 8, ptr nonnull %7) #10
  %34 = call i32 @string2ll(ptr noundef nonnull %.029, i64 noundef %.030, ptr noundef nonnull %7) #10
  %.not35 = icmp eq i32 %34, 0
  br i1 %.not35, label %42, label %35

35:                                               ; preds = %33
  %36 = getelementptr inbounds nuw i8, ptr %0, i64 8
  %37 = load ptr, ptr %36, align 8, !tbaa !38
  %38 = load i64, ptr %7, align 8, !tbaa !58
  %39 = call zeroext i8 @intsetFind(ptr noundef %37, i64 noundef %38) #10
  %40 = icmp ne i8 %39, 0
  %41 = zext i1 %40 to i32
  br label %42

42:                                               ; preds = %35, %33
  %43 = phi i32 [ 0, %33 ], [ %41, %35 ]
  call void @llvm.lifetime.end.p0(i64 8, ptr nonnull %7) #10
  br label %62

44:                                               ; preds = %20
  %45 = icmp eq i32 %23, 2
  %46 = icmp ne i32 %.031, 0
  %or.cond = and i1 %46, %45
  br i1 %or.cond, label %47, label %53

47:                                               ; preds = %44
  %48 = getelementptr inbounds nuw i8, ptr %0, i64 8
  %49 = load ptr, ptr %48, align 8, !tbaa !38
  %50 = call ptr @dictFind(ptr noundef %49, ptr noundef nonnull %.029) #10
  %51 = icmp ne ptr %50, null
  %52 = zext i1 %51 to i32
  br label %62

53:                                               ; preds = %44
  br i1 %45, label %54, label %61

54:                                               ; preds = %53
  %55 = call ptr @sdsnewlen(ptr noundef nonnull %.029, i64 noundef %.030) #10
  %56 = getelementptr inbounds nuw i8, ptr %0, i64 8
  %57 = load ptr, ptr %56, align 8, !tbaa !38
  %58 = call ptr @dictFind(ptr noundef %57, ptr noundef %55) #10
  %59 = icmp ne ptr %58, null
  %60 = zext i1 %59 to i32
  call void @sdsfree(ptr noundef %55) #10
  br label %62

61:                                               ; preds = %53
  call void (ptr, i32, ptr, ...) @_serverPanic(ptr noundef nonnull @.str.1, i32 noundef 305, ptr noundef nonnull @.str.3) #10
  call void @abort() #11
  unreachable

62:                                               ; preds = %24, %28, %54, %47, %42, %12
  %.0 = phi i32 [ %43, %42 ], [ %52, %47 ], [ %60, %54 ], [ %16, %12 ], [ 0, %24 ], [ %32, %28 ]
  call void @llvm.lifetime.end.p0(i64 21, ptr nonnull %6) #10
  ret i32 %.0
}